target datalayout = "e-m:e-p270:32:32-p271:32:32-p272:64:64-i64:64-i128:128-f80:128-n8:16:32:64-S128"
target triple = "x86_64-pc-linux-gnu"

%struct.SwsMatrix3x3 = type { [3 x [3 x float]] }
%struct.AVCIExy = type { %struct.AVRational, %struct.AVRational }
%struct.AVRational = type { i32, i32 }
%struct.AVColorPrimariesDesc = type { %struct.AVCIExy, %struct.AVPrimaryCoefficients }
%struct.AVPrimaryCoefficients = type { %struct.AVCIExy, %struct.AVCIExy, %struct.AVCIExy }

@d65 = internal constant %struct.AVCIExy { %struct.AVRational { i32 3127, i32 10000 }, %struct.AVRational { i32 3290, i32 10000 } }, align 4

; Function Attrs: nounwind uwtable
define void @ff_sws_matrix3x3_mul(ptr noundef %0, ptr noundef %1) #0 {
  %3 = alloca ptr, align 8
  %4 = alloca ptr, align 8
  %5 = alloca float, align 4
  %6 = alloca float, align 4
  %7 = alloca float, align 4
  %8 = alloca float, align 4
  %9 = alloca float, align 4
  %10 = alloca float, align 4
  %11 = alloca float, align 4
  %12 = alloca float, align 4
  %13 = alloca float, align 4
  %14 = alloca i32, align 4
  store ptr %0, ptr %3, align 8, !tbaa !4
  store ptr %1, ptr %4, align 8, !tbaa !4
  call void @llvm.lifetime.start.p0(i64 4, ptr %5) #7
  %15 = load ptr, ptr %3, align 8, !tbaa !4
  %16 = getelementptr inbounds nuw %struct.SwsMatrix3x3, ptr %15, i32 0, i32 0
  %17 = getelementptr inbounds [3 x [3 x float]], ptr %16, i64 0, i64 0
  %18 = getelementptr inbounds [3 x float], ptr %17, i64 0, i64 0
  %19 = load float, ptr %18, align 4, !tbaa !9
  store float %19, ptr %5, align 4, !tbaa !9
  call void @llvm.lifetime.start.p0(i64 4, ptr %6) #7
  %20 = load ptr, ptr %3, align 8, !tbaa !4
  %21 = getelementptr inbounds nuw %struct.SwsMatrix3x3, ptr %20, i32 0, i32 0
  %22 = getelementptr inbounds [3 x [3 x float]], ptr %21, i64 0, i64 0
  %23 = getelementptr inbounds [3 x float], ptr %22, i64 0, i64 1
  %24 = load float, ptr %23, align 4, !tbaa !9
  store float %24, ptr %6, align 4, !tbaa !9
  call void @llvm.lifetime.start.p0(i64 4, ptr %7) #7
  %25 = load ptr, ptr %3, align 8, !tbaa !4
  %26 = getelementptr inbounds nuw %struct.SwsMatrix3x3, ptr %25, i32 0, i32 0
  %27 = getelementptr inbounds [3 x [3 x float]], ptr %26, i64 0, i64 0
  %28 = getelementptr inbounds [3 x float], ptr %27, i64 0, i64 2
  %29 = load float, ptr %28, align 4, !tbaa !9
  store float %29, ptr %7, align 4, !tbaa !9
  call void @llvm.lifetime.start.p0(i64 4, ptr %8) #7
  %30 = load ptr, ptr %3, align 8, !tbaa !4
  %31 = getelementptr inbounds nuw %struct.SwsMatrix3x3, ptr %30, i32 0, i32 0
  %32 = getelementptr inbounds [3 x [3 x float]], ptr %31, i64 0, i64 1
  %33 = getelementptr inbounds [3 x float], ptr %32, i64 0, i64 0
  %34 = load float, ptr %33, align 4, !tbaa !9
  store float %34, ptr %8, align 4, !tbaa !9
  call void @llvm.lifetime.start.p0(i64 4, ptr %9) #7
  %35 = load ptr, ptr %3, align 8, !tbaa !4
  %36 = getelementptr inbounds nuw %struct.SwsMatrix3x3, ptr %35, i32 0, i32 0
  %37 = getelementptr inbounds [3 x [3 x float]], ptr %36, i64 0, i64 1
  %38 = getelementptr inbounds [3 x float], ptr %37, i64 0, i64 1
  %39 = load float, ptr %38, align 4, !tbaa !9
  store float %39, ptr %9, align 4, !tbaa !9
  call void @llvm.lifetime.start.p0(i64 4, ptr %10) #7
  %40 = load ptr, ptr %3, align 8, !tbaa !4
  %41 = getelementptr inbounds nuw %struct.SwsMatrix3x3, ptr %40, i32 0, i32 0
  %42 = getelementptr inbounds [3 x [3 x float]], ptr %41, i64 0, i64 1
  %43 = getelementptr inbounds [3 x float], ptr %42, i64 0, i64 2
  %44 = load float, ptr %43, align 4, !tbaa !9
  store float %44, ptr %10, align 4, !tbaa !9
  call void @llvm.lifetime.start.p0(i64 4, ptr %11) #7
  %45 = load ptr, ptr %3, align 8, !tbaa !4
  %46 = getelementptr inbounds nuw %struct.SwsMatrix3x3, ptr %45, i32 0, i32 0
  %47 = getelementptr inbounds [3 x [3 x float]], ptr %46, i64 0, i64 2
  %48 = getelementptr inbounds [3 x float], ptr %47, i64 0, i64 0
  %49 = load float, ptr %48, align 4, !tbaa !9
  store float %49, ptr %11, align 4, !tbaa !9
  call void @llvm.lifetime.start.p0(i64 4, ptr %12) #7
  %50 = load ptr, ptr %3, align 8, !tbaa !4
  %51 = getelementptr inbounds nuw %struct.SwsMatrix3x3, ptr %50, i32 0, i32 0
  %52 = getelementptr inbounds [3 x [3 x float]], ptr %51, i64 0, i64 2
  %53 = getelementptr inbounds [3 x float], ptr %52, i64 0, i64 1
  %54 = load float, ptr %53, align 4, !tbaa !9
  store float %54, ptr %12, align 4, !tbaa !9
  call void @llvm.lifetime.start.p0(i64 4, ptr %13) #7
  %55 = load ptr, ptr %3, align 8, !tbaa !4
  %56 = getelementptr inbounds nuw %struct.SwsMatrix3x3, ptr %55, i32 0, i32 0
  %57 = getelementptr inbounds [3 x [3 x float]], ptr %56, i64 0, i64 2
  %58 = getelementptr inbounds [3 x float], ptr %57, i64 0, i64 2
  %59 = load float, ptr %58, align 4, !tbaa !9
  store float %59, ptr %13, align 4, !tbaa !9
  call void @llvm.lifetime.start.p0(i64 4, ptr %14) #7
  store i32 0, ptr %14, align 4, !tbaa !11
  br label %60

60:                                               ; preds = %164, %2
  %61 = load i32, ptr %14, align 4, !tbaa !11
  %62 = icmp slt i32 %61, 3
  br i1 %62, label %64, label %63

63:                                               ; preds = %60
  call void @llvm.lifetime.end.p0(i64 4, ptr %14) #7
  br label %167

64:                                               ; preds = %60
  %65 = load float, ptr %5, align 4, !tbaa !9
  %66 = load ptr, ptr %4, align 8, !tbaa !4
  %67 = getelementptr inbounds nuw %struct.SwsMatrix3x3, ptr %66, i32 0, i32 0
  %68 = getelementptr inbounds [3 x [3 x float]], ptr %67, i64 0, i64 0
  %69 = load i32, ptr %14, align 4, !tbaa !11
  %70 = sext i32 %69 to i64
  %71 = getelementptr inbounds [3 x float], ptr %68, i64 0, i64 %70
  %72 = load float, ptr %71, align 4, !tbaa !9
  %73 = load float, ptr %6, align 4, !tbaa !9
  %74 = load ptr, ptr %4, align 8, !tbaa !4
  %75 = getelementptr inbounds nuw %struct.SwsMatrix3x3, ptr %74, i32 0, i32 0
  %76 = getelementptr inbounds [3 x [3 x float]], ptr %75, i64 0, i64 1
  %77 = load i32, ptr %14, align 4, !tbaa !11
  %78 = sext i32 %77 to i64
  %79 = getelementptr inbounds [3 x float], ptr %76, i64 0, i64 %78
  %80 = load float, ptr %79, align 4, !tbaa !9
  %81 = fmul nsz float %73, %80
  %82 = call nsz float @llvm.fmuladd.f32(float %65, float %72, float %81)
  %83 = load float, ptr %7, align 4, !tbaa !9
  %84 = load ptr, ptr %4, align 8, !tbaa !4
  %85 = getelementptr inbounds nuw %struct.SwsMatrix3x3, ptr %84, i32 0, i32 0
  %86 = getelementptr inbounds [3 x [3 x float]], ptr %85, i64 0, i64 2
  %87 = load i32, ptr %14, align 4, !tbaa !11
  %88 = sext i32 %87 to i64
  %89 = getelementptr inbounds [3 x float], ptr %86, i64 0, i64 %88
  %90 = load float, ptr %89, align 4, !tbaa !9
  %91 = call nsz float @llvm.fmuladd.f32(float %83, float %90, float %82)
  %92 = load ptr, ptr %3, align 8, !tbaa !4
  %93 = getelementptr inbounds nuw %struct.SwsMatrix3x3, ptr %92, i32 0, i32 0
  %94 = getelementptr inbounds [3 x [3 x float]], ptr %93, i64 0, i64 0
  %95 = load i32, ptr %14, align 4, !tbaa !11
  %96 = sext i32 %95 to i64
  %97 = getelementptr inbounds [3 x float], ptr %94, i64 0, i64 %96
  store float %91, ptr %97, align 4, !tbaa !9
  %98 = load float, ptr %8, align 4, !tbaa !9
  %99 = load ptr, ptr %4, align 8, !tbaa !4
  %100 = getelementptr inbounds nuw %struct.SwsMatrix3x3, ptr %99, i32 0, i32 0
  %101 = getelementptr inbounds [3 x [3 x float]], ptr %100, i64 0, i64 0
  %102 = load i32, ptr %14, align 4, !tbaa !11
  %103 = sext i32 %102 to i64
  %104 = getelementptr inbounds [3 x float], ptr %101, i64 0, i64 %103
  %105 = load float, ptr %104, align 4, !tbaa !9
  %106 = load float, ptr %9, align 4, !tbaa !9
  %107 = load ptr, ptr %4, align 8, !tbaa !4
  %108 = getelementptr inbounds nuw %struct.SwsMatrix3x3, ptr %107, i32 0, i32 0
  %109 = getelementptr inbounds [3 x [3 x float]], ptr %108, i64 0, i64 1
  %110 = load i32, ptr %14, align 4, !tbaa !11
  %111 = sext i32 %110 to i64
  %112 = getelementptr inbounds [3 x float], ptr %109, i64 0, i64 %111
  %113 = load float, ptr %112, align 4, !tbaa !9
  %114 = fmul nsz float %106, %113
  %115 = call nsz float @llvm.fmuladd.f32(float %98, float %105, float %114)
  %116 = load float, ptr %10, align 4, !tbaa !9
  %117 = load ptr, ptr %4, align 8, !tbaa !4
  %118 = getelementptr inbounds nuw %struct.SwsMatrix3x3, ptr %117, i32 0, i32 0
  %119 = getelementptr inbounds [3 x [3 x float]], ptr %118, i64 0, i64 2
  %120 = load i32, ptr %14, align 4, !tbaa !11
  %121 = sext i32 %120 to i64
  %122 = getelementptr inbounds [3 x float], ptr %119, i64 0, i64 %121
  %123 = load float, ptr %122, align 4, !tbaa !9
  %124 = call nsz float @llvm.fmuladd.f32(float %116, float %123, float %115)
  %125 = load ptr, ptr %3, align 8, !tbaa !4
  %126 = getelementptr inbounds nuw %struct.SwsMatrix3x3, ptr %125, i32 0, i32 0
  %127 = getelementptr inbounds [3 x [3 x float]], ptr %126, i64 0, i64 1
  %128 = load i32, ptr %14, align 4, !tbaa !11
  %129 = sext i32 %128 to i64
  %130 = getelementptr inbounds [3 x float], ptr %127, i64 0, i64 %129
  store float %124, ptr %130, align 4, !tbaa !9
  %131 = load float, ptr %11, align 4, !tbaa !9
  %132 = load ptr, ptr %4, align 8, !tbaa !4
  %133 = getelementptr inbounds nuw %struct.SwsMatrix3x3, ptr %132, i32 0, i32 0
  %134 = getelementptr inbounds [3 x [3 x float]], ptr %133, i64 0, i64 0
  %135 = load i32, ptr %14, align 4, !tbaa !11
  %136 = sext i32 %135 to i64
  %137 = getelementptr inbounds [3 x float], ptr %134, i64 0, i64 %136
  %138 = load float, ptr %137, align 4, !tbaa !9
  %139 = load float, ptr %12, align 4, !tbaa !9
  %140 = load ptr, ptr %4, align 8, !tbaa !4
  %141 = getelementptr inbounds nuw %struct.SwsMatrix3x3, ptr %140, i32 0, i32 0
  %142 = getelementptr inbounds [3 x [3 x float]], ptr %141, i64 0, i64 1
  %143 = load i32, ptr %14, align 4, !tbaa !11
  %144 = sext i32 %143 to i64
  %145 = getelementptr inbounds [3 x float], ptr %142, i64 0, i64 %144
  %146 = load float, ptr %145, align 4, !tbaa !9
  %147 = fmul nsz float %139, %146
  %148 = call nsz float @llvm.fmuladd.f32(float %131, float %138, float %147)
  %149 = load float, ptr %13, align 4, !tbaa !9
  %150 = load ptr, ptr %4, align 8, !tbaa !4
  %151 = getelementptr inbounds nuw %struct.SwsMatrix3x3, ptr %150, i32 0, i32 0
  %152 = getelementptr inbounds [3 x [3 x float]], ptr %151, i64 0, i64 2
  %153 = load i32, ptr %14, align 4, !tbaa !11
  %154 = sext i32 %153 to i64
  %155 = getelementptr inbounds [3 x float], ptr %152, i64 0, i64 %154
  %156 = load float, ptr %155, align 4, !tbaa !9
  %157 = call nsz float @llvm.fmuladd.f32(float %149, float %156, float %148)
  %158 = load ptr, ptr %3, align 8, !tbaa !4
  %159 = getelementptr inbounds nuw %struct.SwsMatrix3x3, ptr %158, i32 0, i32 0
  %160 = getelementptr inbounds [3 x [3 x float]], ptr %159, i64 0, i64 2
  %161 = load i32, ptr %14, align 4, !tbaa !11
  %162 = sext i32 %161 to i64
  %163 = getelementptr inbounds [3 x float], ptr %160, i64 0, i64 %162
  store float %157, ptr %163, align 4, !tbaa !9
  br label %164

164:                                              ; preds = %64
  %165 = load i32, ptr %14, align 4, !tbaa !11
  %166 = add nsw i32 %165, 1
  store i32 %166, ptr %14, align 4, !tbaa !11
  br label %60, !llvm.loop !13

167:                                              ; preds = %63
  call void @llvm.lifetime.end.p0(i64 4, ptr %13) #7
  call void @llvm.lifetime.end.p0(i64 4, ptr %12) #7
  call void @llvm.lifetime.end.p0(i64 4, ptr %11) #7
  call void @llvm.lifetime.end.p0(i64 4, ptr %10) #7
  call void @llvm.lifetime.end.p0(i64 4, ptr %9) #7
  call void @llvm.lifetime.end.p0(i64 4, ptr %8) #7
  call void @llvm.lifetime.end.p0(i64 4, ptr %7) #7
  call void @llvm.lifetime.end.p0(i64 4, ptr %6) #7
  call void @llvm.lifetime.end.p0(i64 4, ptr %5) #7
  ret void
}

; Function Attrs: nounwind uwtable
define void @ff_sws_ipt_rgb2lms(ptr dead_on_unwind noalias writable sret(%struct.SwsMatrix3x3) align 4 %0, ptr noundef %1) #0 {
  %3 = alloca ptr, align 8
  %4 = alloca float, align 4
  %5 = alloca %struct.SwsMatrix3x3, align 4
  %6 = alloca %struct.SwsMatrix3x3, align 4
  store ptr %1, ptr %3, align 8, !tbaa !20
  call void @llvm.lifetime.start.p0(i64 4, ptr %4) #7
  store float 0x3FA47AE140000000, ptr %4, align 4, !tbaa !9
  call void @llvm.lifetime.start.p0(i64 36, ptr %5) #7
  call void @llvm.memcpy.p0.p0.i64(ptr align 4 %0, ptr align 4 @__const.ff_sws_ipt_rgb2lms.m, i64 36, i1 false)
  call void @ff_sws_matrix3x3_mul(ptr noundef %0, ptr noundef @hpe)
  %7 = load ptr, ptr %3, align 8, !tbaa !20
  %8 = getelementptr inbounds nuw %struct.AVColorPrimariesDesc, ptr %7, i32 0, i32 0
  %9 = getelementptr inbounds nuw { i64, i64 }, ptr %8, i32 0, i32 0
  %10 = load i64, ptr %9, align 4
  %11 = getelementptr inbounds nuw { i64, i64 }, ptr %8, i32 0, i32 1
  %12 = load i64, ptr %11, align 4
  %13 = load i64, ptr @d65, align 4
  %14 = load i64, ptr getelementptr inbounds nuw ({ i64, i64 }, ptr @d65, i32 0, i32 1), align 4
  call void @apply_chromatic_adaptation(i64 %10, i64 %12, i64 %13, i64 %14, ptr noundef %0)
  call void @llvm.lifetime.start.p0(i64 36, ptr %6) #7
  %15 = load ptr, ptr %3, align 8, !tbaa !20
  call void @ff_sws_rgb2xyz(ptr dead_on_unwind writable sret(%struct.SwsMatrix3x3) align 4 %6, ptr noundef %15)
  call void @llvm.memcpy.p0.p0.i64(ptr align 4 %5, ptr align 4 %6, i64 36, i1 false), !tbaa.struct !32
  call void @llvm.lifetime.end.p0(i64 36, ptr %6) #7
  call void @ff_sws_matrix3x3_mul(ptr noundef %0, ptr noundef %5)
  call void @llvm.lifetime.end.p0(i64 36, ptr %5) #7
  call void @llvm.lifetime.end.p0(i64 4, ptr %4) #7
  ret void
}